target datalayout = "e-m:e-p270:32:32-p271:32:32-p272:64:64-i64:64-i128:128-f80:128-n8:16:32:64-S128"
target triple = "x86_64-unknown-linux-gnu"

%class.btGenericMemoryPool = type { ptr, ptr, ptr, i64, i64, i64, i64 }

; Function Attrs: mustprogress nounwind uwtable
define dso_local noundef i64 @_ZN19btGenericMemoryPool18allocate_from_poolEm(ptr noundef nonnull align 8 dereferenceable(56) %this, i64 noundef %num_elements) #1 align 2 {
entry:
  %retval = alloca i64, align 8
  %this.addr = alloca ptr, align 8
  %num_elements.addr = alloca i64, align 8
  %ptr = alloca i64, align 8
  store ptr %this, ptr %this.addr, align 8
  store i64 %num_elements, ptr %num_elements.addr, align 8
  %this1 = load ptr, ptr %this.addr, align 8
  %m_allocated_count = getelementptr inbounds %class.btGenericMemoryPool, ptr %this1, i32 0, i32 3
  %0 = load i64, ptr %m_allocated_count, align 8
  %1 = load i64, ptr %num_elements.addr, align 8
  %add = add i64 %0, %1
  %m_max_element_count = getelementptr inbounds %class.btGenericMemoryPool, ptr %this1, i32 0, i32 6
  %2 = load i64, ptr %m_max_element_count, align 8
  %cmp = icmp ugt i64 %add, %2
  br i1 %cmp, label %if.then, label %if.end

if.then:                                          ; preds = %entry
  store i64 4294967295, ptr %retval, align 8
  br label %return

if.end:                                           ; preds = %entry
  %m_allocated_count2 = getelementptr inbounds %class.btGenericMemoryPool, ptr %this1, i32 0, i32 3
  %3 = load i64, ptr %m_allocated_count2, align 8
  store i64 %3, ptr %ptr, align 8
  %4 = load i64, ptr %num_elements.addr, align 8
  %m_allocated_sizes = getelementptr inbounds %class.btGenericMemoryPool, ptr %this1, i32 0, i32 2
  %5 = load ptr, ptr %m_allocated_sizes, align 8
  %m_allocated_count3 = getelementptr inbounds %class.btGenericMemoryPool, ptr %this1, i32 0, i32 3
  %6 = load i64, ptr %m_allocated_count3, align 8
  %arrayidx = getelementptr inbounds i64, ptr %5, i64 %6
  store i64 %4, ptr %arrayidx, align 8
  %7 = load i64, ptr %num_elements.addr, align 8
  %m_allocated_count4 = getelementptr inbounds %class.btGenericMemoryPool, ptr %this1, i32 0, i32 3
  %8 = load i64, ptr %m_allocated_count4, align 8
  %add5 = add i64 %8, %7
  store i64 %add5, ptr %m_allocated_count4, align 8
  %9 = load i64, ptr %ptr, align 8
  store i64 %9, ptr %retval, align 8
  br label %return

return:                                           ; preds = %if.end, %if.then
  %10 = load i64, ptr %retval, align 8
  ret i64 %10
}