; Function Attrs: mustprogress nofree norecurse nosync nounwind willreturn memory(write, argmem: readwrite, inaccessiblemem: none) uwtable
define dso_local noundef i64 @_ZN19btGenericMemoryPool18allocate_from_poolEm(ptr nocapture noundef nonnull align 8 dereferenceable(56) %this, i64 noundef %num_elements) local_unnamed_addr #1 align 2 {
entry:
  %m_allocated_count = getelementptr inbounds i8, ptr %this, i64 24
  %0 = load i64, ptr %m_allocated_count, align 8
  %add = add i64 %0, %num_elements
  %m_max_element_count = getelementptr inbounds i8, ptr %this, i64 48
  %1 = load i64, ptr %m_max_element_count, align 8
  %cmp = icmp ugt i64 %add, %1
  br i1 %cmp, label %return, label %if.end

if.end:                                           ; preds = %entry
  %m_allocated_sizes = getelementptr inbounds i8, ptr %this, i64 16
  %2 = load ptr, ptr %m_allocated_sizes, align 8
  %arrayidx = getelementptr inbounds i64, ptr %2, i64 %0
  store i64 %num_elements, ptr %arrayidx, align 8
  %3 = load i64, ptr %m_allocated_count, align 8
  %add5 = add i64 %3, %num_elements
  store i64 %add5, ptr %m_allocated_count, align 8
  br label %return

return:                                           ; preds = %entry, %if.end
  %retval.0 = phi i64 [ %0, %if.end ], [ 4294967295, %entry ]
  ret i64 %retval.0
}